target datalayout = "e-m:e-p270:32:32-p271:32:32-p272:64:64-i64:64-i128:128-f80:128-n8:16:32:64-S128"
target triple = "x86_64-pc-linux-gnu"

%struct.AVProbeData = type { ptr, ptr, i32, ptr }

@.str.30 = private unnamed_addr constant [8 x i8] c"#EXTM3U\00", align 1
@.str.31 = private unnamed_addr constant [19 x i8] c"#EXT-X-STREAM-INF:\00", align 1
@.str.32 = private unnamed_addr constant [23 x i8] c"#EXT-X-TARGETDURATION:\00", align 1
@.str.33 = private unnamed_addr constant [23 x i8] c"#EXT-X-MEDIA-SEQUENCE:\00", align 1
@.str.34 = private unnamed_addr constant [30 x i8] c"application/vnd.apple.mpegurl\00", align 1
@.str.35 = private unnamed_addr constant [14 x i8] c"audio/mpegurl\00", align 1
@.str.36 = private unnamed_addr constant [16 x i8] c"audio/x-mpegurl\00", align 1
@.str.37 = private unnamed_addr constant [22 x i8] c"application/x-mpegurl\00", align 1
@.str.38 = private unnamed_addr constant [9 x i8] c"m3u8,m3u\00", align 1
@.str.39 = private unnamed_addr constant [79 x i8] c"Not detecting m3u8/hls with non standard extension and non standard mime type\0A\00", align 1
@.str.40 = private unnamed_addr constant [36 x i8] c"mime type is not rfc8216 compliant\0A\00", align 1

; Function Attrs: nounwind uwtable
define internal i32 @hls_probe(ptr noundef %0) #0 {
  %2 = alloca i32, align 4
  %3 = alloca ptr, align 8
  %4 = alloca i32, align 4
  %5 = alloca i32, align 4
  %6 = alloca i32, align 4
  store ptr %0, ptr %3, align 8, !tbaa !4
  %7 = load ptr, ptr %3, align 8, !tbaa !4
  %8 = getelementptr inbounds nuw %struct.AVProbeData, ptr %7, i32 0, i32 1
  %9 = load ptr, ptr %8, align 8, !tbaa !9
  %10 = call i32 @strncmp(ptr noundef %9, ptr noundef @.str.30, i64 noundef 7) #14
  %11 = icmp ne i32 %10, 0
  br i1 %11, label %12, label %13

12:                                               ; preds = %1
  store i32 0, ptr %2, align 4
  br label %101

13:                                               ; preds = %1
  %14 = load ptr, ptr %3, align 8, !tbaa !4
  %15 = getelementptr inbounds nuw %struct.AVProbeData, ptr %14, i32 0, i32 1
  %16 = load ptr, ptr %15, align 8, !tbaa !9
  %17 = call ptr @strstr(ptr noundef %16, ptr noundef @.str.31) #14
  %18 = icmp ne ptr %17, null
  br i1 %18, label %31, label %19

19:                                               ; preds = %13
  %20 = load ptr, ptr %3, align 8, !tbaa !4
  %21 = getelementptr inbounds nuw %struct.AVProbeData, ptr %20, i32 0, i32 1
  %22 = load ptr, ptr %21, align 8, !tbaa !9
  %23 = call ptr @strstr(ptr noundef %22, ptr noundef @.str.32) #14
  %24 = icmp ne ptr %23, null
  br i1 %24, label %31, label %25

25:                                               ; preds = %19
  %26 = load ptr, ptr %3, align 8, !tbaa !4
  %27 = getelementptr inbounds nuw %struct.AVProbeData, ptr %26, i32 0, i32 1
  %28 = load ptr, ptr %27, align 8, !tbaa !9
  %29 = call ptr @strstr(ptr noundef %28, ptr noundef @.str.33) #14
  %30 = icmp ne ptr %29, null
  br i1 %30, label %31, label %100

31:                                               ; preds = %25, %19, %13
  call void @llvm.lifetime.start.p0(i64 4, ptr %4) #15
  %32 = load ptr, ptr %3, align 8, !tbaa !4
  %33 = getelementptr inbounds nuw %struct.AVProbeData, ptr %32, i32 0, i32 3
  %34 = load ptr, ptr %33, align 8, !tbaa !13
  %35 = icmp ne ptr %34, null
  br i1 %35, label %36, label %51

36:                                               ; preds = %31
  %37 = load ptr, ptr %3, align 8, !tbaa !4
  %38 = getelementptr inbounds nuw %struct.AVProbeData, ptr %37, i32 0, i32 3
  %39 = load ptr, ptr %38, align 8, !tbaa !13
  %40 = call i32 @av_strcasecmp(ptr noundef %39, ptr noundef @.str.34)
  %41 = icmp ne i32 %40, 0
  br i1 %41, label %42, label %48

42:                                               ; preds = %36
  %43 = load ptr, ptr %3, align 8, !tbaa !4
  %44 = getelementptr inbounds nuw %struct.AVProbeData, ptr %43, i32 0, i32 3
  %45 = load ptr, ptr %44, align 8, !tbaa !13
  %46 = call i32 @av_strcasecmp(ptr noundef %45, ptr noundef @.str.35)
  %47 = icmp ne i32 %46, 0
  br label %48

48:                                               ; preds = %42, %36
  %49 = phi i1 [ false, %36 ], [ %47, %42 ]
  %50 = xor i1 %49, true
  br label %51

51:                                               ; preds = %48, %31
  %52 = phi i1 [ false, %31 ], [ %50, %48 ]
  %53 = zext i1 %52 to i32
  store i32 %53, ptr %4, align 4, !tbaa !14
  call void @llvm.lifetime.start.p0(i64 4, ptr %5) #15
  %54 = load ptr, ptr %3, align 8, !tbaa !4
  %55 = getelementptr inbounds nuw %struct.AVProbeData, ptr %54, i32 0, i32 3
  %56 = load ptr, ptr %55, align 8, !tbaa !13
  %57 = icmp ne ptr %56, null
  br i1 %57, label %58, label %73

58:                                               ; preds = %51
  %59 = load ptr, ptr %3, align 8, !tbaa !4
  %60 = getelementptr inbounds nuw %struct.AVProbeData, ptr %59, i32 0, i32 3
  %61 = load ptr, ptr %60, align 8, !tbaa !13
  %62 = call i32 @av_strcasecmp(ptr noundef %61, ptr noundef @.str.36)
  %63 = icmp ne i32 %62, 0
  br i1 %63, label %64, label %70

64:                                               ; preds = %58
  %65 = load ptr, ptr %3, align 8, !tbaa !4
  %66 = getelementptr inbounds nuw %struct.AVProbeData, ptr %65, i32 0, i32 3
  %67 = load ptr, ptr %66, align 8, !tbaa !13
  %68 = call i32 @av_strcasecmp(ptr noundef %67, ptr noundef @.str.37)
  %69 = icmp ne i32 %68, 0
  br label %70

70:                                               ; preds = %64, %58
  %71 = phi i1 [ false, %58 ], [ %69, %64 ]
  %72 = xor i1 %71, true
  br label %73

73:                                               ; preds = %70, %51
  %74 = phi i1 [ false, %51 ], [ %72, %70 ]
  %75 = zext i1 %74 to i32
  store i32 %75, ptr %5, align 4, !tbaa !14
  %76 = load i32, ptr %4, align 4, !tbaa !14
  %77 = icmp ne i32 %76, 0
  br i1 %77, label %94, label %78

78:                                               ; preds = %73
  %79 = load i32, ptr %5, align 4, !tbaa !14
  %80 = icmp ne i32 %79, 0
  br i1 %80, label %94, label %81

81:                                               ; preds = %78
  %82 = load ptr, ptr %3, align 8, !tbaa !4
  %83 = getelementptr inbounds nuw %struct.AVProbeData, ptr %82, i32 0, i32 0
  %84 = load ptr, ptr %83, align 8, !tbaa !15
  %85 = call i32 @av_match_ext(ptr noundef %84, ptr noundef @.str.38)
  %86 = icmp ne i32 %85, 0
  br i1 %86, label %94, label %87

87:                                               ; preds = %81
  %88 = load ptr, ptr %3, align 8, !tbaa !4
  %89 = getelementptr inbounds nuw %struct.AVProbeData, ptr %88, i32 0, i32 0
  %90 = load ptr, ptr %89, align 8, !tbaa !15
  %91 = call i32 @ff_match_url_ext(ptr noundef %90, ptr noundef @.str.38)
  %92 = icmp sle i32 %91, 0
  br i1 %92, label %93, label %94

93:                                               ; preds = %87
  call void (ptr, i32, ptr, ...) @av_log(ptr noundef null, i32 noundef 16, ptr noundef @.str.39)
  store i32 0, ptr %2, align 4
  store i32 1, ptr %6, align 4
  br label %99

94:                                               ; preds = %87, %81, %78, %73
  %95 = load i32, ptr %5, align 4, !tbaa !14
  %96 = icmp ne i32 %95, 0
  br i1 %96, label %97, label %98

97:                                               ; preds = %94
  call void (ptr, i32, ptr, ...) @av_log(ptr noundef null, i32 noundef 24, ptr noundef @.str.40)
  br label %98

98:                                               ; preds = %97, %94
  store i32 100, ptr %2, align 4
  store i32 1, ptr %6, align 4
  br label %99

99:                                               ; preds = %98, %93
  call void @llvm.lifetime.end.p0(i64 4, ptr %5) #15
  call void @llvm.lifetime.end.p0(i64 4, ptr %4) #15
  br label %101

100:                                              ; preds = %25
  store i32 0, ptr %2, align 4
  br label %101

101:                                              ; preds = %100, %99, %12
  %102 = load i32, ptr %2, align 4
  ret i32 %102
}