; Function Attrs: nounwind uwtable
define internal range(i32 0, 101) i32 @hls_probe(ptr noundef readonly captures(none) %0) #0 {
  %2 = getelementptr inbounds nuw i8, ptr %0, i64 8
  %3 = load ptr, ptr %2, align 8, !tbaa !4
  %4 = tail call i32 @strncmp(ptr noundef nonnull dereferenceable(1) %3, ptr noundef nonnull dereferenceable(8) @.str.30, i64 noundef 7) #15
  %.not = icmp eq i32 %4, 0
  br i1 %.not, label %5, label %.thread31

5:                                                ; preds = %1
  %6 = tail call ptr @strstr(ptr noundef nonnull dereferenceable(1) %3, ptr noundef nonnull dereferenceable(1) @.str.31) #15
  %.not18 = icmp eq ptr %6, null
  br i1 %.not18, label %7, label %11

7:                                                ; preds = %5
  %8 = tail call ptr @strstr(ptr noundef nonnull dereferenceable(1) %3, ptr noundef nonnull dereferenceable(1) @.str.32) #15
  %.not19 = icmp eq ptr %8, null
  br i1 %.not19, label %9, label %11

9:                                                ; preds = %7
  %10 = tail call ptr @strstr(ptr noundef nonnull dereferenceable(1) %3, ptr noundef nonnull dereferenceable(1) @.str.33) #15
  %.not20 = icmp eq ptr %10, null
  br i1 %.not20, label %.thread31, label %11

11:                                               ; preds = %9, %7, %5
  %12 = getelementptr inbounds nuw i8, ptr %0, i64 24
  %13 = load ptr, ptr %12, align 8, !tbaa !11
  %.not21 = icmp eq ptr %13, null
  br i1 %.not21, label %.thread.thread, label %14

14:                                               ; preds = %11
  %15 = tail call i32 @av_strcasecmp(ptr noundef nonnull %13, ptr noundef nonnull @.str.34) #16
  %.not22 = icmp eq i32 %15, 0
  br i1 %.not22, label %20, label %16

16:                                               ; preds = %14
  %17 = load ptr, ptr %12, align 8, !tbaa !11
  %18 = tail call i32 @av_strcasecmp(ptr noundef %17, ptr noundef nonnull @.str.35) #16
  %19 = icmp eq i32 %18, 0
  br label %20

20:                                               ; preds = %14, %16
  %.ph = phi i1 [ %19, %16 ], [ true, %14 ]
  %.pr = load ptr, ptr %12, align 8, !tbaa !11
  %.not23 = icmp eq ptr %.pr, null
  br i1 %.not23, label %.thread, label %21

21:                                               ; preds = %20
  %22 = tail call i32 @av_strcasecmp(ptr noundef nonnull %.pr, ptr noundef nonnull @.str.36) #16
  %.not24 = icmp eq i32 %22, 0
  br i1 %.not24, label %.thread29, label %23

23:                                               ; preds = %21
  %24 = load ptr, ptr %12, align 8, !tbaa !11
  %25 = tail call i32 @av_strcasecmp(ptr noundef %24, ptr noundef nonnull @.str.37) #16
  %26 = icmp eq i32 %25, 0
  %27 = select i1 %.ph, i1 true, i1 %26
  br i1 %27, label %36, label %.thread.thread

.thread:                                          ; preds = %20
  br i1 %.ph, label %.thread31, label %.thread.thread

.thread.thread:                                   ; preds = %11, %23, %.thread
  %28 = phi i1 [ false, %.thread ], [ %26, %23 ], [ false, %11 ]
  %29 = load ptr, ptr %0, align 8, !tbaa !12
  %30 = tail call i32 @av_match_ext(ptr noundef %29, ptr noundef nonnull @.str.38) #16
  %.not25 = icmp eq i32 %30, 0
  br i1 %.not25, label %31, label %36

31:                                               ; preds = %.thread.thread
  %32 = load ptr, ptr %0, align 8, !tbaa !12
  %33 = tail call i32 @ff_match_url_ext(ptr noundef %32, ptr noundef nonnull @.str.38) #16
  %34 = icmp slt i32 %33, 1
  br i1 %34, label %35, label %36

35:                                               ; preds = %31
  tail call void (ptr, i32, ptr, ...) @av_log(ptr noundef null, i32 noundef 16, ptr noundef nonnull @.str.39) #16
  br label %.thread31

36:                                               ; preds = %23, %31, %.thread.thread
  %37 = phi i1 [ %28, %31 ], [ %28, %.thread.thread ], [ %26, %23 ]
  br i1 %37, label %.thread29, label %.thread31

.thread29:                                        ; preds = %21, %36
  tail call void (ptr, i32, ptr, ...) @av_log(ptr noundef null, i32 noundef 24, ptr noundef nonnull @.str.40) #16
  br label %.thread31

.thread31:                                        ; preds = %.thread, %9, %35, %.thread29, %36, %1
  %.0 = phi i32 [ 0, %1 ], [ 0, %35 ], [ 100, %.thread29 ], [ 100, %36 ], [ 0, %9 ], [ 100, %.thread ]
  ret i32 %.0
}